target datalayout = "e-m:e-p270:32:32-p271:32:32-p272:64:64-i64:64-i128:128-f80:128-n8:16:32:64-S128"
target triple = "x86_64-pc-linux-gnu"

%struct.BrotliDecoderStateStruct = type { i32, i32, %struct.BrotliBitReader, ptr, ptr, ptr, %union.anon, i64, i32, i32, i32, i32, i32, i32, [4 x i32], i32, i32, ptr, ptr, ptr, ptr, ptr, ptr, %struct.HuffmanTreeGroup, %struct.HuffmanTreeGroup, %struct.HuffmanTreeGroup, ptr, ptr, i32, i32, [3 x i64], i64, [3 x i64], [6 x i64], i64, i64, i64, ptr, ptr, i64, i64, i64, [65 x i32], i32, i32, i8, ptr, ptr, ptr, i64, i32, i32, i32, i32, i32, i32, i64, ptr, ptr, ptr, ptr, [8 x i32], %union.anon.0 }
%struct.BrotliBitReader = type { i64, i64, ptr, ptr, ptr }
%union.anon = type { i64 }
%struct.HuffmanTreeGroup = type { ptr, ptr, i16, i16, i16 }
%union.anon.0 = type { %struct.BrotliMetablockBodyArena }
%struct.BrotliMetablockBodyArena = type { [544 x i8], [544 x i64] }

@kBrotliBitMask = external hidden constant [33 x i64], align 16

; Function Attrs: alwaysinline nounwind uwtable
define internal void @BrotliDropBits(ptr noundef %0, i64 noundef %1) #6 {
  %3 = alloca ptr, align 8
  %4 = alloca i64, align 8
  store ptr %0, ptr %3, align 8, !tbaa !19
  store i64 %1, ptr %4, align 8, !tbaa !22
  %5 = load i64, ptr %4, align 8, !tbaa !22
  %6 = load ptr, ptr %3, align 8, !tbaa !19
  %7 = getelementptr inbounds nuw %struct.BrotliBitReader, ptr %6, i32 0, i32 1
  %8 = load i64, ptr %7, align 8, !tbaa !88
  %9 = sub i64 %8, %5
  store i64 %9, ptr %7, align 8, !tbaa !88
  %10 = load i64, ptr %4, align 8, !tbaa !22
  %11 = load ptr, ptr %3, align 8, !tbaa !19
  %12 = getelementptr inbounds nuw %struct.BrotliBitReader, ptr %11, i32 0, i32 0
  %13 = load i64, ptr %12, align 8, !tbaa !145
  %14 = lshr i64 %13, %10
  store i64 %14, ptr %12, align 8, !tbaa !145
  ret void
}

; Function Attrs: alwaysinline nounwind uwtable
define internal i64 @BitMask(i64 noundef %0) #6 {
  %2 = alloca i64, align 8
  %3 = alloca i64, align 8
  store i64 %0, ptr %3, align 8, !tbaa !22
  %4 = load i64, ptr %3, align 8, !tbaa !22
  %5 = call i1 @llvm.is.constant.i64(i64 %4)
  br i1 %5, label %6, label %10

6:                                                ; preds = %1
  %7 = load i64, ptr %3, align 8, !tbaa !22
  %8 = shl i64 -1, %7
  %9 = xor i64 %8, -1
  store i64 %9, ptr %2, align 8
  br label %14

10:                                               ; preds = %1
  %11 = load i64, ptr %3, align 8, !tbaa !22
  %12 = getelementptr inbounds nuw [33 x i64], ptr @kBrotliBitMask, i64 0, i64 %11
  %13 = load i64, ptr %12, align 8, !tbaa !22
  store i64 %13, ptr %2, align 8
  br label %14

14:                                               ; preds = %10, %6
  %15 = load i64, ptr %2, align 8
  ret i64 %15
}

; Function Attrs: alwaysinline nounwind uwtable
define internal i64 @BrotliGetBitsUnmasked(ptr noundef %0) #6 {
  %2 = alloca ptr, align 8
  store ptr %0, ptr %2, align 8, !tbaa !19
  %3 = load ptr, ptr %2, align 8, !tbaa !19
  %4 = getelementptr inbounds nuw %struct.BrotliBitReader, ptr %3, i32 0, i32 0
  %5 = load i64, ptr %4, align 8, !tbaa !145
  ret i64 %5
}

; Function Attrs: alwaysinline nounwind uwtable
define internal i64 @BrotliBitReaderLoadBits(i64 noundef %0, i64 noundef %1, i64 noundef %2, i64 noundef %3) #6 {
  %5 = alloca i64, align 8
  %6 = alloca i64, align 8
  %7 = alloca i64, align 8
  %8 = alloca i64, align 8
  store i64 %0, ptr %5, align 8, !tbaa !22
  store i64 %1, ptr %6, align 8, !tbaa !22
  store i64 %2, ptr %7, align 8, !tbaa !22
  store i64 %3, ptr %8, align 8, !tbaa !22
  %9 = load i64, ptr %5, align 8, !tbaa !22
  %10 = load i64, ptr %6, align 8, !tbaa !22
  %11 = load i64, ptr %8, align 8, !tbaa !22
  %12 = shl i64 %10, %11
  %13 = or i64 %9, %12
  ret i64 %13
}

; Function Attrs: alwaysinline nounwind uwtable
define internal void @BrotliTakeBits(ptr noundef %0, i64 noundef %1, ptr noundef %2) #6 {
  %4 = alloca ptr, align 8
  %5 = alloca i64, align 8
  %6 = alloca ptr, align 8
  store ptr %0, ptr %4, align 8, !tbaa !19
  store i64 %1, ptr %5, align 8, !tbaa !22
  store ptr %2, ptr %6, align 8, !tbaa !41
  %7 = load ptr, ptr %4, align 8, !tbaa !19
  %8 = call i64 @BrotliGetBitsUnmasked(ptr noundef %7)
  %9 = load i64, ptr %5, align 8, !tbaa !22
  %10 = call i64 @BitMask(i64 noundef %9)
  %11 = and i64 %8, %10
  %12 = load ptr, ptr %6, align 8, !tbaa !41
  store i64 %11, ptr %12, align 8, !tbaa !22
  %13 = load ptr, ptr %4, align 8, !tbaa !19
  %14 = load i64, ptr %5, align 8, !tbaa !22
  call void @BrotliDropBits(ptr noundef %13, i64 noundef %14)
  ret void
}

; Function Attrs: alwaysinline nounwind uwtable
define internal i32 @BrotliPullByte(ptr noundef %0) #6 {
  %2 = alloca i32, align 4
  %3 = alloca ptr, align 8
  store ptr %0, ptr %3, align 8, !tbaa !19
  %4 = load ptr, ptr %3, align 8, !tbaa !19
  %5 = getelementptr inbounds nuw %struct.BrotliBitReader, ptr %4, i32 0, i32 2
  %6 = load ptr, ptr %5, align 8, !tbaa !49
  %7 = load ptr, ptr %3, align 8, !tbaa !19
  %8 = getelementptr inbounds nuw %struct.BrotliBitReader, ptr %7, i32 0, i32 4
  %9 = load ptr, ptr %8, align 8, !tbaa !50
  %10 = icmp eq ptr %6, %9
  br i1 %10, label %11, label %12

11:                                               ; preds = %1
  store i32 0, ptr %2, align 4
  br label %35

12:                                               ; preds = %1
  %13 = load ptr, ptr %3, align 8, !tbaa !19
  %14 = getelementptr inbounds nuw %struct.BrotliBitReader, ptr %13, i32 0, i32 0
  %15 = load i64, ptr %14, align 8, !tbaa !145
  %16 = load ptr, ptr %3, align 8, !tbaa !19
  %17 = getelementptr inbounds nuw %struct.BrotliBitReader, ptr %16, i32 0, i32 2
  %18 = load ptr, ptr %17, align 8, !tbaa !49
  %19 = load i8, ptr %18, align 1, !tbaa !51
  %20 = zext i8 %19 to i64
  %21 = load ptr, ptr %3, align 8, !tbaa !19
  %22 = getelementptr inbounds nuw %struct.BrotliBitReader, ptr %21, i32 0, i32 1
  %23 = load i64, ptr %22, align 8, !tbaa !88
  %24 = call i64 @BrotliBitReaderLoadBits(i64 noundef %15, i64 noundef %20, i64 noundef 8, i64 noundef %23)
  %25 = load ptr, ptr %3, align 8, !tbaa !19
  %26 = getelementptr inbounds nuw %struct.BrotliBitReader, ptr %25, i32 0, i32 0
  store i64 %24, ptr %26, align 8, !tbaa !145
  %27 = load ptr, ptr %3, align 8, !tbaa !19
  %28 = getelementptr inbounds nuw %struct.BrotliBitReader, ptr %27, i32 0, i32 1
  %29 = load i64, ptr %28, align 8, !tbaa !88
  %30 = add i64 %29, 8
  store i64 %30, ptr %28, align 8, !tbaa !88
  %31 = load ptr, ptr %3, align 8, !tbaa !19
  %32 = getelementptr inbounds nuw %struct.BrotliBitReader, ptr %31, i32 0, i32 2
  %33 = load ptr, ptr %32, align 8, !tbaa !49
  %34 = getelementptr inbounds nuw i8, ptr %33, i32 1
  store ptr %34, ptr %32, align 8, !tbaa !49
  store i32 1, ptr %2, align 4
  br label %35

35:                                               ; preds = %12, %11
  %36 = load i32, ptr %2, align 4
  ret i32 %36
}

; Function Attrs: alwaysinline nounwind uwtable
define internal i64 @BrotliGetAvailableBits(ptr noundef %0) #6 {
  %2 = alloca ptr, align 8
  store ptr %0, ptr %2, align 8, !tbaa !19
  %3 = load ptr, ptr %2, align 8, !tbaa !19
  %4 = getelementptr inbounds nuw %struct.BrotliBitReader, ptr %3, i32 0, i32 1
  %5 = load i64, ptr %4, align 8, !tbaa !88
  ret i64 %5
}

; Function Attrs: alwaysinline nounwind uwtable
define internal i32 @BrotliSafeReadBits(ptr noundef %0, i64 noundef %1, ptr noundef %2) #6 {
  %4 = alloca i32, align 4
  %5 = alloca ptr, align 8
  %6 = alloca i64, align 8
  %7 = alloca ptr, align 8
  store ptr %0, ptr %5, align 8, !tbaa !19
  store i64 %1, ptr %6, align 8, !tbaa !22
  store ptr %2, ptr %7, align 8, !tbaa !41
  br label %8

8:                                                ; preds = %18, %3
  %9 = load ptr, ptr %5, align 8, !tbaa !19
  %10 = call i64 @BrotliGetAvailableBits(ptr noundef %9)
  %11 = load i64, ptr %6, align 8, !tbaa !22
  %12 = icmp ult i64 %10, %11
  br i1 %12, label %13, label %19

13:                                               ; preds = %8
  %14 = load ptr, ptr %5, align 8, !tbaa !19
  %15 = call i32 @BrotliPullByte(ptr noundef %14)
  %16 = icmp ne i32 %15, 0
  br i1 %16, label %18, label %17

17:                                               ; preds = %13
  store i32 0, ptr %4, align 4
  br label %23

18:                                               ; preds = %13
  br label %8, !llvm.loop !89

19:                                               ; preds = %8
  %20 = load ptr, ptr %5, align 8, !tbaa !19
  %21 = load i64, ptr %6, align 8, !tbaa !22
  %22 = load ptr, ptr %7, align 8, !tbaa !41
  call void @BrotliTakeBits(ptr noundef %20, i64 noundef %21, ptr noundef %22)
  store i32 1, ptr %4, align 4
  br label %23

23:                                               ; preds = %19, %17
  %24 = load i32, ptr %4, align 4
  ret i32 %24
}

; Function Attrs: noinline nounwind uwtable
define internal i32 @DecodeVarLenUint8(ptr noundef %0, ptr noundef %1, ptr noundef %2) #5 {
  %4 = alloca i32, align 4
  %5 = alloca ptr, align 8
  %6 = alloca ptr, align 8
  %7 = alloca ptr, align 8
  %8 = alloca i64, align 8
  %9 = alloca i32, align 4
  store ptr %0, ptr %5, align 8, !tbaa !3
  store ptr %1, ptr %6, align 8, !tbaa !19
  store ptr %2, ptr %7, align 8, !tbaa !41
  call void @llvm.lifetime.start.p0(i64 8, ptr %8) #11
  %10 = load ptr, ptr %5, align 8, !tbaa !3
  %11 = getelementptr inbounds nuw %struct.BrotliDecoderStateStruct, ptr %10, i32 0, i32 52
  %12 = load i32, ptr %11, align 8, !tbaa !95
  switch i32 %12, label %74 [
    i32 0, label %13
    i32 1, label %29
    i32 2, label %51
  ]

13:                                               ; preds = %3
  %14 = load ptr, ptr %6, align 8, !tbaa !19
  %15 = call i32 @BrotliSafeReadBits(ptr noundef %14, i64 noundef 1, ptr noundef %8)
  %16 = icmp ne i32 %15, 0
  %17 = xor i1 %16, true
  %18 = zext i1 %17 to i32
  %19 = sext i32 %18 to i64
  %20 = call i64 @llvm.expect.i64(i64 %19, i64 0)
  %21 = icmp ne i64 %20, 0
  br i1 %21, label %22, label %23

22:                                               ; preds = %13
  store i32 2, ptr %4, align 4
  store i32 1, ptr %9, align 4
  br label %75

23:                                               ; preds = %13
  %24 = load i64, ptr %8, align 8, !tbaa !22
  %25 = icmp eq i64 %24, 0
  br i1 %25, label %26, label %28

26:                                               ; preds = %23
  %27 = load ptr, ptr %7, align 8, !tbaa !41
  store i64 0, ptr %27, align 8, !tbaa !22
  store i32 1, ptr %4, align 4
  store i32 1, ptr %9, align 4
  br label %75

28:                                               ; preds = %23
  br label %29

29:                                               ; preds = %3, %28
  %30 = load ptr, ptr %6, align 8, !tbaa !19
  %31 = call i32 @BrotliSafeReadBits(ptr noundef %30, i64 noundef 3, ptr noundef %8)
  %32 = icmp ne i32 %31, 0
  %33 = xor i1 %32, true
  %34 = zext i1 %33 to i32
  %35 = sext i32 %34 to i64
  %36 = call i64 @llvm.expect.i64(i64 %35, i64 0)
  %37 = icmp ne i64 %36, 0
  br i1 %37, label %38, label %41

38:                                               ; preds = %29
  %39 = load ptr, ptr %5, align 8, !tbaa !3
  %40 = getelementptr inbounds nuw %struct.BrotliDecoderStateStruct, ptr %39, i32 0, i32 52
  store i32 1, ptr %40, align 8, !tbaa !95
  store i32 2, ptr %4, align 4
  store i32 1, ptr %9, align 4
  br label %75

41:                                               ; preds = %29
  %42 = load i64, ptr %8, align 8, !tbaa !22
  %43 = icmp eq i64 %42, 0
  br i1 %43, label %44, label %48

44:                                               ; preds = %41
  %45 = load ptr, ptr %7, align 8, !tbaa !41
  store i64 1, ptr %45, align 8, !tbaa !22
  %46 = load ptr, ptr %5, align 8, !tbaa !3
  %47 = getelementptr inbounds nuw %struct.BrotliDecoderStateStruct, ptr %46, i32 0, i32 52
  store i32 0, ptr %47, align 8, !tbaa !95
  store i32 1, ptr %4, align 4
  store i32 1, ptr %9, align 4
  br label %75

48:                                               ; preds = %41
  %49 = load i64, ptr %8, align 8, !tbaa !22
  %50 = load ptr, ptr %7, align 8, !tbaa !41
  store i64 %49, ptr %50, align 8, !tbaa !22
  br label %51

51:                                               ; preds = %3, %48
  %52 = load ptr, ptr %6, align 8, !tbaa !19
  %53 = load ptr, ptr %7, align 8, !tbaa !41
  %54 = load i64, ptr %53, align 8, !tbaa !22
  %55 = call i32 @BrotliSafeReadBits(ptr noundef %52, i64 noundef %54, ptr noundef %8)
  %56 = icmp ne i32 %55, 0
  %57 = xor i1 %56, true
  %58 = zext i1 %57 to i32
  %59 = sext i32 %58 to i64
  %60 = call i64 @llvm.expect.i64(i64 %59, i64 0)
  %61 = icmp ne i64 %60, 0
  br i1 %61, label %62, label %65

62:                                               ; preds = %51
  %63 = load ptr, ptr %5, align 8, !tbaa !3
  %64 = getelementptr inbounds nuw %struct.BrotliDecoderStateStruct, ptr %63, i32 0, i32 52
  store i32 2, ptr %64, align 8, !tbaa !95
  store i32 2, ptr %4, align 4
  store i32 1, ptr %9, align 4
  br label %75

65:                                               ; preds = %51
  %66 = load ptr, ptr %7, align 8, !tbaa !41
  %67 = load i64, ptr %66, align 8, !tbaa !22
  %68 = shl i64 1, %67
  %69 = load i64, ptr %8, align 8, !tbaa !22
  %70 = add i64 %68, %69
  %71 = load ptr, ptr %7, align 8, !tbaa !41
  store i64 %70, ptr %71, align 8, !tbaa !22
  %72 = load ptr, ptr %5, align 8, !tbaa !3
  %73 = getelementptr inbounds nuw %struct.BrotliDecoderStateStruct, ptr %72, i32 0, i32 52
  store i32 0, ptr %73, align 8, !tbaa !95
  store i32 1, ptr %4, align 4
  store i32 1, ptr %9, align 4
  br label %75

74:                                               ; preds = %3
  store i32 -31, ptr %4, align 4
  store i32 1, ptr %9, align 4
  br label %75

75:                                               ; preds = %74, %65, %62, %44, %38, %26, %22
  call void @llvm.lifetime.end.p0(i64 8, ptr %8) #11
  %76 = load i32, ptr %4, align 4
  ret i32 %76
}